(dp1
S'files'
p2
(dp3
S'_Users_edsall_Documents_Python_simple-aci-toolkit_acibaseobject'
p4
(dp5
S'index'
p6
(dp7
S'html_filename'
p8
S'_Users_edsall_Documents_Python_simple-aci-toolkit_acibaseobject.html'
p9
sS'name'
p10
S'/Users/edsall/Documents/Python/simple-aci-toolkit/acibaseobject'
p11
sS'nums'
p12
ccopy_reg
_reconstructor
p13
(ccoverage.results
Numbers
p14
c__builtin__
object
p15
NtRp16
(dp17
S'n_files'
p18
I1
sS'n_branches'
p19
I0
sS'n_statements'
p20
I221
sS'n_excluded'
p21
I0
sS'n_partial_branches'
p22
I0
sS'n_missing'
p23
I154
sS'n_missing_branches'
p24
I0
sbssS'hash'
p25
S'\xca\xc0\x1f\xb5KRz\xd9Ln\xee\x84\xc0\x0b\xa9$'
p26
ssS'_Library_Python_2_7_site-packages_requests-2_3_0-py2_7_egg_requests_packages_chardet_jpcntx'
p27
(dp28
S'index'
p29
(dp30
g8
S'_Library_Python_2_7_site-packages_requests-2_3_0-py2_7_egg_requests_packages_chardet_jpcntx.html'
p31
sg10
S'/Library/Python/2.7/site-packages/requests-2.3.0-py2.7.egg/requests/packages/chardet/jpcntx'
p32
sg12
g13
(g14
g15
NtRp33
(dp34
g18
I1
sg19
I0
sg20
I69
sg21
I0
sg22
I0
sg23
I51
sg24
I0
sbssS'hash'
p35
S'\x07\xb4\xe4\xfe\xaen\xca\xd7\xb2\xc8\xc4\xd2u\t#\x95'
p36
ssS'_Library_Python_2_7_site-packages_requests-2_3_0-py2_7_egg_requests_packages_urllib3__collections'
p37
(dp38
g6
(dp39
g8
S'_Library_Python_2_7_site-packages_requests-2_3_0-py2_7_egg_requests_packages_urllib3__collections.html'
p40
sg10
S'/Library/Python/2.7/site-packages/requests-2.3.0-py2.7.egg/requests/packages/urllib3/_collections'
p41
sg12
g13
(g14
g15
NtRp42
(dp43
g18
I1
sg19
I0
sg20
I92
sg21
I0
sg22
I0
sg23
I37
sg24
I0
sbssg25
S'\x1bh$d0h\xdc\t\x0e\x1d\xd0\n\xf0\x02Q\x8d'
p44
ssS'_Library_Python_2_7_site-packages_requests-2_3_0-py2_7_egg_requests_packages_chardet_compat'
p45
(dp46
g29
(dp47
g8
S'_Library_Python_2_7_site-packages_requests-2_3_0-py2_7_egg_requests_packages_chardet_compat.html'
p48
sg10
S'/Library/Python/2.7/site-packages/requests-2.3.0-py2.7.egg/requests/packages/chardet/compat'
p49
sg12
g13
(g14
g15
NtRp50
(dp51
g18
I1
sg19
I0
sg20
I8
sg21
I0
sg22
I0
sg23
I4
sg24
I0
sbssg35
S'>ulZ@\xcd\x8f\xab\xe4\xea\xa3\xf8t\xecpn'
p52
ssS'_Library_Python_2_7_site-packages_requests-2_3_0-py2_7_egg_requests_packages_chardet_eucjpprober'
p53
(dp54
g29
(dp55
g8
S'_Library_Python_2_7_site-packages_requests-2_3_0-py2_7_egg_requests_packages_chardet_eucjpprober.html'
p56
sg10
S'/Library/Python/2.7/site-packages/requests-2.3.0-py2.7.egg/requests/packages/chardet/eucjpprober'
p57
sg12
g13
(g14
g15
NtRp58
(dp59
g18
I1
sg19
I0
sg20
I48
sg21
I0
sg22
I0
sg23
I35
sg24
I0
sbssg35
S'\x91y\x1b\xe8\xd3\xa6\xe0\xd7\xe6\xd0K\xf3l\xcau\xca'
p60
ssS'_Library_Python_2_7_site-packages_requests-2_3_0-py2_7_egg_requests_packages_chardet_big5freq'
p61
(dp62
g29
(dp63
g8
S'_Library_Python_2_7_site-packages_requests-2_3_0-py2_7_egg_requests_packages_chardet_big5freq.html'
p64
sg10
S'/Library/Python/2.7/site-packages/requests-2.3.0-py2.7.egg/requests/packages/chardet/big5freq'
p65
sg12
g13
(g14
g15
NtRp66
(dp67
g18
I1
sg19
I0
sg20
I3
sg21
I0
sg22
I0
sg23
I0
sg24
I0
sbssg35
S'\xd1\x07\xb8\xa5\xdd\xf5B\xfb\xccZe8\xc1\x1e{\xf1'
p68
ssS'_Library_Python_2_7_site-packages_requests-2_3_0-py2_7_egg_requests_packages_chardet_constants'
p69
(dp70
g29
(dp71
g8
S'_Library_Python_2_7_site-packages_requests-2_3_0-py2_7_egg_requests_packages_chardet_constants.html'
p72
sg10
S'/Library/Python/2.7/site-packages/requests-2.3.0-py2.7.egg/requests/packages/chardet/constants'
p73
sg12
g13
(g14
g15
NtRp74
(dp75
g18
I1
sg19
I0
sg20
I8
sg21
I0
sg22
I0
sg23
I0
sg24
I0
sbssg35
S'\xf1/1\xa1OF\xb9\xeb\x17Yz\x8c+v\xec\x12'
p76
ssS'_Library_Python_2_7_site-packages_requests-2_3_0-py2_7_egg_requests_packages_urllib3_connection'
p77
(dp78
g6
(dp79
g8
S'_Library_Python_2_7_site-packages_requests-2_3_0-py2_7_egg_requests_packages_urllib3_connection.html'
p80
sg10
S'/Library/Python/2.7/site-packages/requests-2.3.0-py2.7.egg/requests/packages/urllib3/connection'
p81
sg12
g13
(g14
g15
NtRp82
(dp83
g18
I1
sg19
I0
sg20
I96
sg21
I0
sg22
I0
sg23
I27
sg24
I0
sbssg25
S'\x85\xfc\xc0j\xee\x16\xe6{G\x84\x1dX\x0f\x1f\x8a4'
p84
ssS'_Library_Python_2_7_site-packages_requests-2_3_0-py2_7_egg_requests___init__'
p85
(dp86
g6
(dp87
S'html_filename'
p88
S'_Library_Python_2_7_site-packages_requests-2_3_0-py2_7_egg_requests___init__.html'
p89
sS'name'
p90
S'/Library/Python/2.7/site-packages/requests-2.3.0-py2.7.egg/requests/__init__'
p91
sS'nums'
p92
g13
(g14
g15
NtRp93
(dp94
g18
I1
sg19
I0
sg20
I26
sg21
I0
sg22
I0
sg23
I5
sg24
I0
sbssg25
S'\xf9\xcb\\\x02\x02\xeb\xab#\x0b\xca\xdd8\xc2M\xc9\xd3'
p95
ssS'_Users_edsall_Documents_Python_simple-aci-toolkit_acitoolkit'
p96
(dp97
g6
(dp98
g8
S'_Users_edsall_Documents_Python_simple-aci-toolkit_acitoolkit.html'
p99
sg10
S'/Users/edsall/Documents/Python/simple-aci-toolkit/acitoolkit'
p100
sg12
g13
(g14
g15
NtRp101
(dp102
g18
I1
sg19
I0
sg20
I677
sg21
I0
sg22
I0
sg23
I475
sg24
I0
sbssg25
S'\xdd\x1b\xa6\xec\x8b\xc3\xb9\x92\xea\xe0o\x02\xfe\xa6rE'
p103
ssS'_Library_Python_2_7_site-packages_requests-2_3_0-py2_7_egg_requests_packages_chardet_escsm'
p104
(dp105
g29
(dp106
g8
S'_Library_Python_2_7_site-packages_requests-2_3_0-py2_7_egg_requests_packages_chardet_escsm.html'
p107
sg10
S'/Library/Python/2.7/site-packages/requests-2.3.0-py2.7.egg/requests/packages/chardet/escsm'
p108
sg12
g13
(g14
g15
NtRp109
(dp110
g18
I1
sg19
I0
sg20
I17
sg21
I0
sg22
I0
sg23
I0
sg24
I0
sbssg35
S'\x9d\x06\xfaP\xfb\xe4qV\x87\xcb\xe8rY\x1e~?'
p111
ssS'_Library_Python_2_7_site-packages_requests-2_3_0-py2_7_egg_requests_packages_urllib3_util_timeout'
p112
(dp113
g6
(dp114
g8
S'_Library_Python_2_7_site-packages_requests-2_3_0-py2_7_egg_requests_packages_urllib3_util_timeout.html'
p115
sg10
S'/Library/Python/2.7/site-packages/requests-2.3.0-py2.7.egg/requests/packages/urllib3/util/timeout'
p116
sg12
g13
(g14
g15
NtRp117
(dp118
g18
I1
sg19
I0
sg20
I57
sg21
I0
sg22
I0
sg23
I23
sg24
I0
sbssg25
S"'\xf1\x98\x80\x9f\xf4O\xa5\xebe\x99\xdf*zr\xd8"
p119
ssS'_Library_Python_2_7_site-packages_requests-2_3_0-py2_7_egg_requests_packages_chardet_big5prober'
p120
(dp121
g29
(dp122
g8
S'_Library_Python_2_7_site-packages_requests-2_3_0-py2_7_egg_requests_packages_chardet_big5prober.html'
p123
sg10
S'/Library/Python/2.7/site-packages/requests-2.3.0-py2.7.egg/requests/packages/chardet/big5prober'
p124
sg12
g13
(g14
g15
NtRp125
(dp126
g18
I1
sg19
I0
sg20
I12
sg21
I0
sg22
I0
sg23
I5
sg24
I0
sbssg35
S'(;\xab@\xb7\xb8x\x95{\xed6\xc4\x8d\xeb\xa3Z'
p127
ssS'_Library_Python_2_7_site-packages_requests-2_3_0-py2_7_egg_requests_packages_urllib3_contrib___init__'
p128
(dp129
g6
(dp130
g88
S'_Library_Python_2_7_site-packages_requests-2_3_0-py2_7_egg_requests_packages_urllib3_contrib___init__.html'
p131
sg90
S'/Library/Python/2.7/site-packages/requests-2.3.0-py2.7.egg/requests/packages/urllib3/contrib/__init__'
p132
sg92
g13
(g14
g15
NtRp133
(dp134
g18
I1
sg19
I0
sg20
I0
sg21
I0
sg22
I0
sg23
I0
sg24
I0
sbssg25
S'\xca\xf5\x9f\x7f\x88\xdfa\x831|T\x1d\xbc}\xa5v'
p135
ssS'_Library_Python_2_7_site-packages_requests-2_3_0-py2_7_egg_requests_packages_urllib3_response'
p136
(dp137
g6
(dp138
g8
S'_Library_Python_2_7_site-packages_requests-2_3_0-py2_7_egg_requests_packages_urllib3_response.html'
p139
sg10
S'/Library/Python/2.7/site-packages/requests-2.3.0-py2.7.egg/requests/packages/urllib3/response'
p140
sg12
g13
(g14
g15
NtRp141
(dp142
g18
I1
sg19
I0
sg20
I140
sg21
I0
sg22
I0
sg23
I56
sg24
I0
sbssg25
S'\xb0< \xe7\xca\x8a.\xb9\xf5}\\Y\xca:\xdcJ'
p143
ssS'_Library_Python_2_7_site-packages_requests-2_3_0-py2_7_egg_requests_cookies'
p144
(dp145
g6
(dp146
g8
S'_Library_Python_2_7_site-packages_requests-2_3_0-py2_7_egg_requests_cookies.html'
p147
sg10
S'/Library/Python/2.7/site-packages/requests-2.3.0-py2.7.egg/requests/cookies'
p148
sg12
g13
(g14
g15
NtRp149
(dp150
g18
I1
sg19
I0
sg20
I213
sg21
I0
sg22
I0
sg23
I118
sg24
I0
sbssg25
S'\xc4\x82\x9a\x9c\x01\xe2GN`\x8d{\xa1\xdd\xc0\xef\x0f'
p151
ssS'_Library_Python_2_7_site-packages_requests-2_3_0-py2_7_egg_requests_packages_urllib3_connectionpool'
p152
(dp153
g6
(dp154
g8
S'_Library_Python_2_7_site-packages_requests-2_3_0-py2_7_egg_requests_packages_urllib3_connectionpool.html'
p155
sg10
S'/Library/Python/2.7/site-packages/requests-2.3.0-py2.7.egg/requests/packages/urllib3/connectionpool'
p156
sg12
g13
(g14
g15
NtRp157
(dp158
g18
I1
sg19
I0
sg20
I242
sg21
I0
sg22
I0
sg23
I102
sg24
I0
sbssg25
S">Q'E\xa8\xb1\x05\xe3\x8e\x98r[\x83\xe5\xc6S"
p159
ssS'_Library_Python_2_7_site-packages_requests-2_3_0-py2_7_egg_requests_packages_chardet_langgreekmodel'
p160
(dp161
g29
(dp162
g8
S'_Library_Python_2_7_site-packages_requests-2_3_0-py2_7_egg_requests_packages_chardet_langgreekmodel.html'
p163
sg10
S'/Library/Python/2.7/site-packages/requests-2.3.0-py2.7.egg/requests/packages/chardet/langgreekmodel'
p164
sg12
g13
(g14
g15
NtRp165
(dp166
g18
I1
sg19
I0
sg20
I5
sg21
I0
sg22
I0
sg23
I0
sg24
I0
sbssg35
S' O1\x9e&\xe2]p\xeeGyj\xc2\xe8\x84\x1a'
p167
ssS'cable'
p168
(dp169
g6
(dp170
S'html_filename'
p171
S'cable.html'
p172
sS'name'
p173
S'cable'
p174
sS'nums'
p175
g13
(g14
g15
NtRp176
(dp177
g18
I1
sg19
I0
sg20
I602
sg21
I0
sg22
I0
sg23
I39
sg24
I0
sbssg25
S'\xe7u\xb1lS\xa3M6\xb4\x1e\x9d\xf0\xe1x:b'
p178
ssS'_Library_Python_2_7_site-packages_requests-2_3_0-py2_7_egg_requests_packages_chardet_langthaimodel'
p179
(dp180
g29
(dp181
g8
S'_Library_Python_2_7_site-packages_requests-2_3_0-py2_7_egg_requests_packages_chardet_langthaimodel.html'
p182
sg10
S'/Library/Python/2.7/site-packages/requests-2.3.0-py2.7.egg/requests/packages/chardet/langthaimodel'
p183
sg12
g13
(g14
g15
NtRp184
(dp185
g18
I1
sg19
I0
sg20
I3
sg21
I0
sg22
I0
sg23
I0
sg24
I0
sbssg35
S'Q\x1a\xaey-\xa0\xef\r<LQ8\x9b6\x1dN'
p186
ssS'_Library_Python_2_7_site-packages_requests-2_3_0-py2_7_egg_requests_packages_chardet_euckrprober'
p187
(dp188
g29
(dp189
g8
S'_Library_Python_2_7_site-packages_requests-2_3_0-py2_7_egg_requests_packages_chardet_euckrprober.html'
p190
sg10
S'/Library/Python/2.7/site-packages/requests-2.3.0-py2.7.egg/requests/packages/chardet/euckrprober'
p191
sg12
g13
(g14
g15
NtRp192
(dp193
g18
I1
sg19
I0
sg20
I12
sg21
I0
sg22
I0
sg23
I5
sg24
I0
sbssg35
S'\x98\x91\x1c\xc3(_a?\xd8Y.\xf76\xea\x0f\x84'
p194
ssS'_Library_Python_2_7_site-packages_requests-2_3_0-py2_7_egg_requests_packages_urllib3_util___init__'
p195
(dp196
g6
(dp197
g88
S'_Library_Python_2_7_site-packages_requests-2_3_0-py2_7_egg_requests_packages_urllib3_util___init__.html'
p198
sg90
S'/Library/Python/2.7/site-packages/requests-2.3.0-py2.7.egg/requests/packages/urllib3/util/__init__'
p199
sg92
g13
(g14
g15
NtRp200
(dp201
g18
I1
sg19
I0
sg20
I6
sg21
I0
sg22
I0
sg23
I0
sg24
I0
sbssg25
S'\x06Q\xe2\xa4\xa1\xcc\x138N[\xcf\xbe\xde\xb9t\xe6'
p202
ssS'_Library_Python_2_7_site-packages_requests-2_3_0-py2_7_egg_requests_adapters'
p203
(dp204
g6
(dp205
g8
S'_Library_Python_2_7_site-packages_requests-2_3_0-py2_7_egg_requests_adapters.html'
p206
sg10
S'/Library/Python/2.7/site-packages/requests-2.3.0-py2.7.egg/requests/adapters'
p207
sg12
g13
(g14
g15
NtRp208
(dp209
g18
I1
sg19
I0
sg20
I157
sg21
I0
sg22
I0
sg23
I59
sg24
I0
sbssg25
S'D\xd0\xbf\xc0\xbe,\x18@!\xc8d6\xba3\x00U'
p210
ssS'_Library_Python_2_7_site-packages_requests-2_3_0-py2_7_egg_requests_packages_chardet_jisfreq'
p211
(dp212
g29
(dp213
g8
S'_Library_Python_2_7_site-packages_requests-2_3_0-py2_7_egg_requests_packages_chardet_jisfreq.html'
p214
sg10
S'/Library/Python/2.7/site-packages/requests-2.3.0-py2.7.egg/requests/packages/chardet/jisfreq'
p215
sg12
g13
(g14
g15
NtRp216
(dp217
g18
I1
sg19
I0
sg20
I3
sg21
I0
sg22
I0
sg23
I0
sg24
I0
sbssg35
S'/\x82\xa8\xe9G\xb2\xb9{\xc7+\xeb\xc1\x9f\xe6%!'
p218
ssS'_Library_Python_2_7_site-packages_requests-2_3_0-py2_7_egg_requests_api'
p219
(dp220
g6
(dp221
g88
S'_Library_Python_2_7_site-packages_requests-2_3_0-py2_7_egg_requests_api.html'
p222
sg90
S'/Library/Python/2.7/site-packages/requests-2.3.0-py2.7.egg/requests/api'
p223
sg92
g13
(g14
g15
NtRp224
(dp225
g18
I1
sg19
I0
sg20
I22
sg21
I0
sg22
I0
sg23
I12
sg24
I0
sbssg25
S'\x8b\x83\xf6\xc2\xb7\x9f\xc3R*1~\x16+\xcb\xee\x8b'
p226
ssS'_Library_Python_2_7_site-packages_requests-2_3_0-py2_7_egg_requests_packages_chardet_euctwfreq'
p227
(dp228
g29
(dp229
g8
S'_Library_Python_2_7_site-packages_requests-2_3_0-py2_7_egg_requests_packages_chardet_euctwfreq.html'
p230
sg10
S'/Library/Python/2.7/site-packages/requests-2.3.0-py2.7.egg/requests/packages/chardet/euctwfreq'
p231
sg12
g13
(g14
g15
NtRp232
(dp233
g18
I1
sg19
I0
sg20
I3
sg21
I0
sg22
I0
sg23
I0
sg24
I0
sbssg35
S'Y\xf4\xcf\xdf\xa9\x7f\x05\xe3\x8a\xbbj\xa08\xb6\x0f\x9b'
p234
ssS'_Library_Python_2_7_site-packages_requests-2_3_0-py2_7_egg_requests_packages_chardet_chardistribution'
p235
(dp236
g29
(dp237
g8
S'_Library_Python_2_7_site-packages_requests-2_3_0-py2_7_egg_requests_packages_chardet_chardistribution.html'
p238
sg10
S'/Library/Python/2.7/site-packages/requests-2.3.0-py2.7.egg/requests/packages/chardet/chardistribution'
p239
sg12
g13
(g14
g15
NtRp240
(dp241
g18
I1
sg19
I0
sg20
I115
sg21
I0
sg22
I0
sg23
I80
sg24
I0
sbssg35
S'\x02\xd9=\\\x18u\x19\x98nb\x1c\x7f|{\x05\xd4'
p242
ssS'_Library_Python_2_7_site-packages_requests-2_3_0-py2_7_egg_requests_packages_chardet_langbulgarianmodel'
p243
(dp244
g29
(dp245
g8
S'_Library_Python_2_7_site-packages_requests-2_3_0-py2_7_egg_requests_packages_chardet_langbulgarianmodel.html'
p246
sg10
S'/Library/Python/2.7/site-packages/requests-2.3.0-py2.7.egg/requests/packages/chardet/langbulgarianmodel'
p247
sg12
g13
(g14
g15
NtRp248
(dp249
g18
I1
sg19
I0
sg20
I5
sg21
I0
sg22
I0
sg23
I0
sg24
I0
sbssg35
S'WY\xd3\x1c\x98\x07\xa2\x14f\x1d\x98\x1c\x18yfI'
p250
ssS'_Library_Python_2_7_site-packages_requests-2_3_0-py2_7_egg_requests_status_codes'
p251
(dp252
g6
(dp253
g88
S'_Library_Python_2_7_site-packages_requests-2_3_0-py2_7_egg_requests_status_codes.html'
p254
sg90
S'/Library/Python/2.7/site-packages/requests-2.3.0-py2.7.egg/requests/status_codes'
p255
sg92
g13
(g14
g15
NtRp256
(dp257
g18
I1
sg19
I0
sg20
I8
sg21
I0
sg22
I0
sg23
I0
sg24
I0
sbssg25
S'?du\x03\xb7\xe6\xafy\xa2\xe2\xa2\xf2\xae5\x9cz'
p258
ssS'_Library_Python_2_7_site-packages_lxml__elementpath'
p259
(dp260
g6
(dp261
g88
S'_Library_Python_2_7_site-packages_lxml__elementpath.html'
p262
sg90
S'/Library/Python/2.7/site-packages/lxml/_elementpath'
p263
sg92
g13
(g14
g15
NtRp264
(dp265
g18
I1
sg19
I0
sg20
I182
sg21
I0
sg22
I0
sg23
I166
sg24
I0
sbssg25
S'+\xed\xe9\x1b,\xb5n\xad\x84\x99h\xfcFUb\xdc'
p266
ssS'_Library_Python_2_7_site-packages_requests-2_3_0-py2_7_egg_requests_packages_urllib3_poolmanager'
p267
(dp268
g6
(dp269
g8
S'_Library_Python_2_7_site-packages_requests-2_3_0-py2_7_egg_requests_packages_urllib3_poolmanager.html'
p270
sg10
S'/Library/Python/2.7/site-packages/requests-2.3.0-py2.7.egg/requests/packages/urllib3/poolmanager'
p271
sg12
g13
(g14
g15
NtRp272
(dp273
g18
I1
sg19
I0
sg20
I97
sg21
I0
sg22
I0
sg23
I50
sg24
I0
sbssg25
S'xL\x9e\xed\xe4\x02\xf6o\x07\xdc}\xbc$\xc3\x03\xc1'
p274
ssS'_Library_Python_2_7_site-packages_requests-2_3_0-py2_7_egg_requests_packages_chardet_escprober'
p275
(dp276
g29
(dp277
g8
S'_Library_Python_2_7_site-packages_requests-2_3_0-py2_7_egg_requests_packages_chardet_escprober.html'
p278
sg10
S'/Library/Python/2.7/site-packages/requests-2.3.0-py2.7.egg/requests/packages/chardet/escprober'
p279
sg12
g13
(g14
g15
NtRp280
(dp281
g18
I1
sg19
I0
sg20
I44
sg21
I0
sg22
I0
sg23
I33
sg24
I0
sbssg35
S'\xbc\x80\xd6\xc5\xda2@\x1b\xb7\xdb\x83q\xd9\x8f\xd8\x96'
p282
ssS'_Library_Python_2_7_site-packages_requests-2_3_0-py2_7_egg_requests_packages_urllib3___init__'
p283
(dp284
g6
(dp285
g88
S'_Library_Python_2_7_site-packages_requests-2_3_0-py2_7_egg_requests_packages_urllib3___init__.html'
p286
sg90
S'/Library/Python/2.7/site-packages/requests-2.3.0-py2.7.egg/requests/packages/urllib3/__init__'
p287
sg92
g13
(g14
g15
NtRp288
(dp289
g18
I1
sg19
I0
sg20
I27
sg21
I0
sg22
I0
sg23
I11
sg24
I0
sbssg25
S'\xf80\x10\xed\xb7ET\xfc\x98\x9cb\xbf\x83\x83\x16\xf4'
p290
ssS'_Library_Python_2_7_site-packages_requests-2_3_0-py2_7_egg_requests_packages_chardet_universaldetector'
p291
(dp292
g29
(dp293
g8
S'_Library_Python_2_7_site-packages_requests-2_3_0-py2_7_egg_requests_packages_chardet_universaldetector.html'
p294
sg10
S'/Library/Python/2.7/site-packages/requests-2.3.0-py2.7.egg/requests/packages/chardet/universaldetector'
p295
sg12
g13
(g14
g15
NtRp296
(dp297
g18
I1
sg19
I0
sg20
I106
sg21
I0
sg22
I0
sg23
I51
sg24
I0
sbssg35
S'\xd2\xa0\xef_#_\x14\xf3\x19-ZH\x88??\xb4'
p298
ssS'_Library_Python_2_7_site-packages_requests-2_3_0-py2_7_egg_requests_packages_chardet_hebrewprober'
p299
(dp300
g29
(dp301
g8
S'_Library_Python_2_7_site-packages_requests-2_3_0-py2_7_egg_requests_packages_chardet_hebrewprober.html'
p302
sg10
S'/Library/Python/2.7/site-packages/requests-2.3.0-py2.7.egg/requests/packages/chardet/hebrewprober'
p303
sg12
g13
(g14
g15
NtRp304
(dp305
g18
I1
sg19
I0
sg20
I69
sg21
I0
sg22
I0
sg23
I43
sg24
I0
sbssg35
S'\x10\x90\x9f\x94\n\xb6\x85F\x87\x12\xe1\x91\r\x11\x1e\xaa'
p306
ssS'_Library_Python_2_7_site-packages_requests-2_3_0-py2_7_egg_requests_packages_chardet_gb2312freq'
p307
(dp308
g29
(dp309
g8
S'_Library_Python_2_7_site-packages_requests-2_3_0-py2_7_egg_requests_packages_chardet_gb2312freq.html'
p310
sg10
S'/Library/Python/2.7/site-packages/requests-2.3.0-py2.7.egg/requests/packages/chardet/gb2312freq'
p311
sg12
g13
(g14
g15
NtRp312
(dp313
g18
I1
sg19
I0
sg20
I3
sg21
I0
sg22
I0
sg23
I0
sg24
I0
sbssg35
S'H\x0c\xaf\xbc\xa2~\xf1\x1e\xb8}\xcf\x0e\x8e\xd1\xcbu'
p314
ssS'_Library_Python_2_7_site-packages_requests-2_3_0-py2_7_egg_requests_packages_urllib3_util_request'
p315
(dp316
g6
(dp317
g88
S'_Library_Python_2_7_site-packages_requests-2_3_0-py2_7_egg_requests_packages_urllib3_util_request.html'
p318
sg90
S'/Library/Python/2.7/site-packages/requests-2.3.0-py2.7.egg/requests/packages/urllib3/util/request'
p319
sg92
g13
(g14
g15
NtRp320
(dp321
g18
I1
sg19
I0
sg20
I21
sg21
I0
sg22
I0
sg23
I17
sg24
I0
sbssg25
S'\xb6F\x8eo\x91\x8fa\xb6s\xd7\xbd\xa1.$Z"'
p322
ssS'_Library_Python_2_7_site-packages_requests-2_3_0-py2_7_egg_requests_packages_chardet_langcyrillicmodel'
p323
(dp324
g29
(dp325
g8
S'_Library_Python_2_7_site-packages_requests-2_3_0-py2_7_egg_requests_packages_chardet_langcyrillicmodel.html'
p326
sg10
S'/Library/Python/2.7/site-packages/requests-2.3.0-py2.7.egg/requests/packages/chardet/langcyrillicmodel'
p327
sg12
g13
(g14
g15
NtRp328
(dp329
g18
I1
sg19
I0
sg20
I13
sg21
I0
sg22
I0
sg23
I0
sg24
I0
sbssg35
S'\x89*\x91\r\xd8\x9a\xfb\xa8w\xd9O\xdddoRA'
p330
ssS'_Users_edsall_Documents_Python_simple-aci-toolkit_jsontoxml'
p331
(dp332
g6
(dp333
g88
S'_Users_edsall_Documents_Python_simple-aci-toolkit_jsontoxml.html'
p334
sg90
S'/Users/edsall/Documents/Python/simple-aci-toolkit/jsontoxml'
p335
sg92
g13
(g14
g15
NtRp336
(dp337
g18
I1
sg19
I0
sg20
I187
sg21
I0
sg22
I0
sg23
I159
sg24
I0
sbssg25
S'\xf2\xab%\xf0\xc4x\x94\x1a\x9a2\xa8\xd9\xe2S\xa1\xc0'
p338
ssS'_Library_Python_2_7_site-packages_requests-2_3_0-py2_7_egg_requests_packages_urllib3_filepost'
p339
(dp340
g6
(dp341
g88
S'_Library_Python_2_7_site-packages_requests-2_3_0-py2_7_egg_requests_packages_urllib3_filepost.html'
p342
sg90
S'/Library/Python/2.7/site-packages/requests-2.3.0-py2.7.egg/requests/packages/urllib3/filepost'
p343
sg92
g13
(g14
g15
NtRp344
(dp345
g18
I1
sg19
I0
sg20
I39
sg21
I0
sg22
I0
sg23
I27
sg24
I0
sbssg25
S'\xc1\x82-\x1d\x06V\xfb\x13\xad\xd2\x01\xd4O5I\x8e'
p346
ssS'_Users_edsall_Documents_Python_simple-aci-toolkit_credentials'
p347
(dp348
g6
(dp349
g88
S'_Users_edsall_Documents_Python_simple-aci-toolkit_credentials.html'
p350
sg90
S'/Users/edsall/Documents/Python/simple-aci-toolkit/credentials'
p351
sg92
g13
(g14
g15
NtRp352
(dp353
g18
I1
sg19
I0
sg20
I4
sg21
I0
sg22
I0
sg23
I0
sg24
I0
sbssg25
S'\x83\xd2\xb8\xb5\x1c\x14\xb5Qml\xad\xcd\x9b6\xca\xec'
p354
ssS'_Library_Python_2_7_site-packages_requests-2_3_0-py2_7_egg_requests_packages_urllib3_packages_ordered_dict'
p355
(dp356
g6
(dp357
g8
S'_Library_Python_2_7_site-packages_requests-2_3_0-py2_7_egg_requests_packages_urllib3_packages_ordered_dict.html'
p358
sg10
S'/Library/Python/2.7/site-packages/requests-2.3.0-py2.7.egg/requests/packages/urllib3/packages/ordered_dict'
p359
sg12
g13
(g14
g15
NtRp360
(dp361
g18
I1
sg19
I0
sg20
I155
sg21
I0
sg22
I0
sg23
I93
sg24
I0
sbssg25
S'\x9b\xa3\xe1\x01\xe4\x07\xf1\xf1\x1c\xbe@|;|\xc1\x85'
p362
ssS'_Library_Python_2_7_site-packages_requests-2_3_0-py2_7_egg_requests_packages_urllib3_util_connection'
p363
(dp364
g6
(dp365
g8
S'_Library_Python_2_7_site-packages_requests-2_3_0-py2_7_egg_requests_packages_urllib3_util_connection.html'
p366
sg10
S'/Library/Python/2.7/site-packages/requests-2.3.0-py2.7.egg/requests/packages/urllib3/util/connection'
p367
sg12
g13
(g14
g15
NtRp368
(dp369
g18
I1
sg19
I0
sg20
I27
sg21
I0
sg22
I0
sg23
I12
sg24
I0
sbssg25
S'\xb6h\n\x99[\x11\x85\x88k\xf9\x18X\x9b_r\x7f'
p370
ssS'_Library_Python_2_7_site-packages_requests-2_3_0-py2_7_egg_requests_packages_urllib3_contrib_pyopenssl'
p371
(dp372
g6
(dp373
g88
S'_Library_Python_2_7_site-packages_requests-2_3_0-py2_7_egg_requests_packages_urllib3_contrib_pyopenssl.html'
p374
sg90
S'/Library/Python/2.7/site-packages/requests-2.3.0-py2.7.egg/requests/packages/urllib3/contrib/pyopenssl'
p375
sg92
g13
(g14
g15
NtRp376
(dp377
g18
I1
sg19
I0
sg20
I235
sg21
I0
sg22
I0
sg23
I234
sg24
I0
sbssg25
S'd\xf5K0\xe5\x84V\xaf\x1e[\xbd\xe5\xbc\x11\x86\x85'
p378
ssS'aciCableplan_test'
p379
(dp380
g6
(dp381
S'html_filename'
p382
S'aciCableplan_test.html'
p383
sS'name'
p384
S'aciCableplan_test'
p385
sS'nums'
p386
g13
(g14
g15
NtRp387
(dp388
g18
I1
sg19
I0
sg20
I816
sg21
I0
sg22
I0
sg23
I1
sg24
I0
sbssg25
S'\xdd\x8b.\xa6\xa0\rV\x94\xf8\x98\xbd\xe9\x00\x02T\x01'
p389
ssS'_Library_Python_2_7_site-packages_requests-2_3_0-py2_7_egg_requests_packages_chardet_langhebrewmodel'
p390
(dp391
g29
(dp392
g8
S'_Library_Python_2_7_site-packages_requests-2_3_0-py2_7_egg_requests_packages_chardet_langhebrewmodel.html'
p393
sg10
S'/Library/Python/2.7/site-packages/requests-2.3.0-py2.7.egg/requests/packages/chardet/langhebrewmodel'
p394
sg12
g13
(g14
g15
NtRp395
(dp396
g18
I1
sg19
I0
sg20
I3
sg21
I0
sg22
I0
sg23
I0
sg24
I0
sbssg35
S'\xb6\xb7%\xe4\xfbG\x8dHe\xa0\xf8\x04Jd\xd4\xba'
p397
ssS'_Library_Python_2_7_site-packages_requests-2_3_0-py2_7_egg_requests_packages_chardet_euctwprober'
p398
(dp399
g29
(dp400
g8
S'_Library_Python_2_7_site-packages_requests-2_3_0-py2_7_egg_requests_packages_chardet_euctwprober.html'
p401
sg10
S'/Library/Python/2.7/site-packages/requests-2.3.0-py2.7.egg/requests/packages/chardet/euctwprober'
p402
sg12
g13
(g14
g15
NtRp403
(dp404
g18
I1
sg19
I0
sg20
I12
sg21
I0
sg22
I0
sg23
I5
sg24
I0
sbssg35
S'u\xe5\x12a\xf9\x0et\x1c-\x8b\xdcn\xe4\xc0\xdb*'
p405
ssS'_Library_Python_2_7_site-packages_requests-2_3_0-py2_7_egg_requests_packages_chardet_cp949prober'
p406
(dp407
g29
(dp408
g8
S'_Library_Python_2_7_site-packages_requests-2_3_0-py2_7_egg_requests_packages_chardet_cp949prober.html'
p409
sg10
S'/Library/Python/2.7/site-packages/requests-2.3.0-py2.7.egg/requests/packages/chardet/cp949prober'
p410
sg12
g13
(g14
g15
NtRp411
(dp412
g18
I1
sg19
I0
sg20
I12
sg21
I0
sg22
I0
sg23
I5
sg24
I0
sbssg35
S'\xaa\xb7?\x96\xc8T\x02\xe93\xf8\xfa\xd0k\n\x19j'
p413
ssS'_Library_Python_2_7_site-packages_requests-2_3_0-py2_7_egg_requests_packages_urllib3_fields'
p414
(dp415
g6
(dp416
g88
S'_Library_Python_2_7_site-packages_requests-2_3_0-py2_7_egg_requests_packages_urllib3_fields.html'
p417
sg90
S'/Library/Python/2.7/site-packages/requests-2.3.0-py2.7.egg/requests/packages/urllib3/fields'
p418
sg92
g13
(g14
g15
NtRp419
(dp420
g18
I1
sg19
I0
sg20
I68
sg21
I0
sg22
I0
sg23
I56
sg24
I0
sbssg25
S'\xaf\xca\xdf\xff\x91\x0f#o|$\xf49\xa9\xf4\xa9\xd0'
p421
ssS'_Library_Python_2_7_site-packages_requests-2_3_0-py2_7_egg_requests_hooks'
p422
(dp423
g6
(dp424
g8
S'_Library_Python_2_7_site-packages_requests-2_3_0-py2_7_egg_requests_hooks.html'
p425
sg10
S'/Library/Python/2.7/site-packages/requests-2.3.0-py2.7.egg/requests/hooks'
p426
sg12
g13
(g14
g15
NtRp427
(dp428
g18
I1
sg19
I0
sg20
I18
sg21
I0
sg22
I0
sg23
I4
sg24
I0
sbssg25
S'\xad\xdc4\x1eB\xae\xcb\x8f\x08\t\x01\xee\xa1\x7f\xf0B'
p429
ssS'_Library_Python_2_7_site-packages_requests-2_3_0-py2_7_egg_requests_packages_chardet_sbcsgroupprober'
p430
(dp431
g29
(dp432
g8
S'_Library_Python_2_7_site-packages_requests-2_3_0-py2_7_egg_requests_packages_chardet_sbcsgroupprober.html'
p433
sg10
S'/Library/Python/2.7/site-packages/requests-2.3.0-py2.7.egg/requests/packages/chardet/sbcsgroupprober'
p434
sg12
g13
(g14
g15
NtRp435
(dp436
g18
I1
sg19
I0
sg20
I19
sg21
I0
sg22
I0
sg23
I8
sg24
I0
sbssg35
S'p\x15g\x14\xd0\xce\xa3\x8d\xc8\xc4\xc1\xbb\xa2\x98\xa6R'
p437
ssS'_Library_Python_2_7_site-packages_requests-2_3_0-py2_7_egg_requests_exceptions'
p438
(dp439
g6
(dp440
g88
S'_Library_Python_2_7_site-packages_requests-2_3_0-py2_7_egg_requests_exceptions.html'
p441
sg90
S'/Library/Python/2.7/site-packages/requests-2.3.0-py2.7.egg/requests/exceptions'
p442
sg92
g13
(g14
g15
NtRp443
(dp444
g18
I1
sg19
I0
sg20
I22
sg21
I0
sg22
I0
sg23
I6
sg24
I0
sbssg25
S'\x9e\xd4\xf3\x9dF\xce p?\x9f\xef0W\x18\xff\x06'
p445
ssS'_Library_Python_2_7_site-packages_requests-2_3_0-py2_7_egg_requests_structures'
p446
(dp447
g6
(dp448
g8
S'_Library_Python_2_7_site-packages_requests-2_3_0-py2_7_egg_requests_structures.html'
p449
sg10
S'/Library/Python/2.7/site-packages/requests-2.3.0-py2.7.egg/requests/structures'
p450
sg12
g13
(g14
g15
NtRp451
(dp452
g18
I1
sg19
I0
sg20
I55
sg21
I0
sg22
I0
sg23
I21
sg24
I0
sbssg25
S'\xed\xcdP\xd4\x03\xc4\x06\x9b\x8e04\x88T\x8d\xf0\xb5'
p453
ssS'_Library_Python_2_7_site-packages_requests-2_3_0-py2_7_egg_requests_packages_urllib3_packages_ssl_match_hostname___init__'
p454
(dp455
g6
(dp456
g88
S'_Library_Python_2_7_site-packages_requests-2_3_0-py2_7_egg_requests_packages_urllib3_packages_ssl_match_hostname___init__.html'
p457
sg90
S'/Library/Python/2.7/site-packages/requests-2.3.0-py2.7.egg/requests/packages/urllib3/packages/ssl_match_hostname/__init__'
p458
sg92
g13
(g14
g15
NtRp459
(dp460
g18
I1
sg19
I0
sg20
I8
sg21
I0
sg22
I0
sg23
I0
sg24
I0
sbssg25
S'I\xe4\x9f\x83)\xd9\xe2\x16\xa9\x08\xc2\xden\x8f3A'
p461
ssS'_Library_Python_2_7_site-packages_requests-2_3_0-py2_7_egg_requests_packages_urllib3_util_url'
p462
(dp463
g6
(dp464
g8
S'_Library_Python_2_7_site-packages_requests-2_3_0-py2_7_egg_requests_packages_urllib3_util_url.html'
p465
sg10
S'/Library/Python/2.7/site-packages/requests-2.3.0-py2.7.egg/requests/packages/urllib3/util/url'
p466
sg12
g13
(g14
g15
NtRp467
(dp468
g18
I1
sg19
I0
sg20
I69
sg21
I0
sg22
I0
sg23
I24
sg24
I0
sbssg25
S'\xab#\x05]\x81\xa0)\xae!6KeP\x08\xcfF'
p469
ssS'_Library_Python_2_7_site-packages_requests-2_3_0-py2_7_egg_requests_packages_chardet_mbcharsetprober'
p470
(dp471
g29
(dp472
g8
S'_Library_Python_2_7_site-packages_requests-2_3_0-py2_7_egg_requests_packages_chardet_mbcharsetprober.html'
p473
sg10
S'/Library/Python/2.7/site-packages/requests-2.3.0-py2.7.egg/requests/packages/chardet/mbcharsetprober'
p474
sg12
g13
(g14
g15
NtRp475
(dp476
g18
I1
sg19
I0
sg20
I43
sg21
I0
sg22
I0
sg23
I34
sg24
I0
sbssg35
S'\xcd1\x83\x84\xea\xe3\x8ew\x85\xfeieW2\x8c\xc9'
p477
ssS'_Users_edsall_Documents_Python_simple-aci-toolkit_acisession'
p478
(dp479
g6
(dp480
g8
S'_Users_edsall_Documents_Python_simple-aci-toolkit_acisession.html'
p481
sg10
S'/Users/edsall/Documents/Python/simple-aci-toolkit/acisession'
p482
sg12
g13
(g14
g15
NtRp483
(dp484
g18
I1
sg19
I0
sg20
I32
sg21
I0
sg22
I0
sg23
I5
sg24
I0
sbssg25
S'\xe7-\xc9\xea\xce2\xe7>E\xfar\xdf\xe6wG\xb1'
p485
ssS'_Library_Python_2_7_site-packages_requests-2_3_0-py2_7_egg_requests_packages_chardet_sjisprober'
p486
(dp487
g29
(dp488
g8
S'_Library_Python_2_7_site-packages_requests-2_3_0-py2_7_egg_requests_packages_chardet_sjisprober.html'
p489
sg10
S'/Library/Python/2.7/site-packages/requests-2.3.0-py2.7.egg/requests/packages/chardet/sjisprober'
p490
sg12
g13
(g14
g15
NtRp491
(dp492
g18
I1
sg19
I0
sg20
I48
sg21
I0
sg22
I0
sg23
I35
sg24
I0
sbssg35
S'M\xbe\xaa4W\xe2\xe7\x9d{\xe0\xc4\x19\xdc\xb9\xbe\xaf'
p493
ssS'_Library_Python_2_7_site-packages_requests-2_3_0-py2_7_egg_requests_packages_chardet___init__'
p494
(dp495
g6
(dp496
g8
S'_Library_Python_2_7_site-packages_requests-2_3_0-py2_7_egg_requests_packages_chardet___init__.html'
p497
sg10
S'/Library/Python/2.7/site-packages/requests-2.3.0-py2.7.egg/requests/packages/chardet/__init__'
p498
sg12
g13
(g14
g15
NtRp499
(dp500
g18
I1
sg19
I0
sg20
I11
sg21
I0
sg22
I0
sg23
I1
sg24
I0
sbssg25
S"\xb6E~\xd5\xaeIS\xf0\xc1\x98\xa7\xbf/r'\x91"
p501
ssS'_Library_Python_2_7_site-packages_requests-2_3_0-py2_7_egg_requests_sessions'
p502
(dp503
g6
(dp504
g8
S'_Library_Python_2_7_site-packages_requests-2_3_0-py2_7_egg_requests_sessions.html'
p505
sg10
S'/Library/Python/2.7/site-packages/requests-2.3.0-py2.7.egg/requests/sessions'
p506
sg12
g13
(g14
g15
NtRp507
(dp508
g18
I1
sg19
I0
sg20
I237
sg21
I0
sg22
I0
sg23
I103
sg24
I0
sbssg25
S'*"\x1c\x1bO\x16\x05\x95m\x85L\x0c\x16\x11}m'
p509
ssS'_Users_edsall_Documents_Python_simple-aci-toolkit_aciphysobject'
p510
(dp511
g6
(dp512
g8
S'_Users_edsall_Documents_Python_simple-aci-toolkit_aciphysobject.html'
p513
sg10
S'/Users/edsall/Documents/Python/simple-aci-toolkit/aciphysobject'
p514
sg12
g13
(g14
g15
NtRp515
(dp516
g18
I1
sg19
I0
sg20
I479
sg21
I0
sg22
I0
sg23
I59
sg24
I0
sbssg25
S'\xb0\x01fV\t\x05\x1d\x92\rg\x01Bl\xb5ur'
p517
ssS'_Library_Python_2_7_site-packages_requests-2_3_0-py2_7_egg_requests_packages_chardet_codingstatemachine'
p518
(dp519
g29
(dp520
g8
S'_Library_Python_2_7_site-packages_requests-2_3_0-py2_7_egg_requests_packages_chardet_codingstatemachine.html'
p521
sg10
S'/Library/Python/2.7/site-packages/requests-2.3.0-py2.7.egg/requests/packages/chardet/codingstatemachine'
p522
sg12
g13
(g14
g15
NtRp523
(dp524
g18
I1
sg19
I0
sg20
I23
sg21
I0
sg22
I0
sg23
I15
sg24
I0
sbssg35
S'\xd5\xc2tJ?\x92<\x959\xe4\x8f\x1f\x82\xd7x\xbc'
p525
ssS'_Library_Python_2_7_site-packages_requests-2_3_0-py2_7_egg_requests_packages_chardet_latin1prober'
p526
(dp527
g29
(dp528
g8
S'_Library_Python_2_7_site-packages_requests-2_3_0-py2_7_egg_requests_packages_chardet_latin1prober.html'
p529
sg10
S'/Library/Python/2.7/site-packages/requests-2.3.0-py2.7.egg/requests/packages/chardet/latin1prober'
p530
sg12
g13
(g14
g15
NtRp531
(dp532
g18
I1
sg19
I0
sg20
I47
sg21
I0
sg22
I0
sg23
I26
sg24
I0
sbssg35
S'\xff$in\x8d\r{\x7f\xffh\x8d\x1b\xa2\xa5:\xae'
p533
ssS'_Library_Python_2_7_site-packages_requests-2_3_0-py2_7_egg_requests_packages_chardet_charsetprober'
p534
(dp535
g29
(dp536
g8
S'_Library_Python_2_7_site-packages_requests-2_3_0-py2_7_egg_requests_packages_chardet_charsetprober.html'
p537
sg10
S'/Library/Python/2.7/site-packages/requests-2.3.0-py2.7.egg/requests/packages/chardet/charsetprober'
p538
sg12
g13
(g14
g15
NtRp539
(dp540
g18
I1
sg19
I0
sg20
I23
sg21
I0
sg22
I0
sg23
I11
sg24
I0
sbssg35
S'j\xeb\xe2\xcfS\xa7&0\x01\x03\x020\xad\xb2\xb2\xc7'
p541
ssS'_Library_Python_2_7_site-packages_requests-2_3_0-py2_7_egg_requests_packages_urllib3_packages_ssl_match_hostname__implementation'
p542
(dp543
g6
(dp544
g88
S'_Library_Python_2_7_site-packages_requests-2_3_0-py2_7_egg_requests_packages_urllib3_packages_ssl_match_hostname__implementation.html'
p545
sg90
S'/Library/Python/2.7/site-packages/requests-2.3.0-py2.7.egg/requests/packages/urllib3/packages/ssl_match_hostname/_implementation'
p546
sg92
g13
(g14
g15
NtRp547
(dp548
g18
I1
sg19
I0
sg20
I47
sg21
I0
sg22
I0
sg23
I41
sg24
I0
sbssg25
S' \x12\x8b\xa3\xa8\xac\xc30_\x85.\xfdc>6\xb1'
p549
ssS'_Library_Python_2_7_site-packages_requests-2_3_0-py2_7_egg_requests_packages___init__'
p550
(dp551
g6
(dp552
g88
S'_Library_Python_2_7_site-packages_requests-2_3_0-py2_7_egg_requests_packages___init__.html'
p553
sg90
S'/Library/Python/2.7/site-packages/requests-2.3.0-py2.7.egg/requests/packages/__init__'
p554
sg92
g13
(g14
g15
NtRp555
(dp556
g18
I1
sg19
I0
sg20
I2
sg21
I0
sg22
I0
sg23
I0
sg24
I0
sbssg25
S'4|\xe2\x98\xb2\xd6\xd7\x91\xb7\x15[\x16\x01@\x8b\xcd'
p557
ssS'_Library_Python_2_7_site-packages_requests-2_3_0-py2_7_egg_requests_packages_chardet_charsetgroupprober'
p558
(dp559
g29
(dp560
g8
S'_Library_Python_2_7_site-packages_requests-2_3_0-py2_7_egg_requests_packages_chardet_charsetgroupprober.html'
p561
sg10
S'/Library/Python/2.7/site-packages/requests-2.3.0-py2.7.egg/requests/packages/chardet/charsetgroupprober'
p562
sg12
g13
(g14
g15
NtRp563
(dp564
g18
I1
sg19
I0
sg20
I67
sg21
I0
sg22
I0
sg23
I58
sg24
I0
sbssg35
S'$\xcb\x9e\x9a\x02\xb0\xd7\x1f;v?\xe5\xae\x00j+'
p565
ssS'_Library_Python_2_7_site-packages_requests-2_3_0-py2_7_egg_requests_certs'
p566
(dp567
g6
(dp568
g88
S'_Library_Python_2_7_site-packages_requests-2_3_0-py2_7_egg_requests_certs.html'
p569
sg90
S'/Library/Python/2.7/site-packages/requests-2.3.0-py2.7.egg/requests/certs'
p570
sg92
g13
(g14
g15
NtRp571
(dp572
g18
I1
sg19
I0
sg20
I6
sg21
I0
sg22
I0
sg23
I1
sg24
I0
sbssg25
S'\xb0\xbb\x0e\xeet\xd3\x15\x91/\xfb\xec\x11\xb5\xe7\xc5\xa6'
p573
ssS'_Library_Python_2_7_site-packages_requests-2_3_0-py2_7_egg_requests_packages_chardet_sbcharsetprober'
p574
(dp575
g29
(dp576
g8
S'_Library_Python_2_7_site-packages_requests-2_3_0-py2_7_egg_requests_packages_chardet_sbcharsetprober.html'
p577
sg10
S'/Library/Python/2.7/site-packages/requests-2.3.0-py2.7.egg/requests/packages/chardet/sbcharsetprober'
p578
sg12
g13
(g14
g15
NtRp579
(dp580
g18
I1
sg19
I0
sg20
I70
sg21
I0
sg22
I0
sg23
I53
sg24
I0
sbssg35
S'\x06\xdbQH\xd4\xc8\x93 \xc6~\xbe\xf3\x82b\xfbL'
p581
ssS'_Library_Python_2_7_site-packages_requests-2_3_0-py2_7_egg_requests_packages_chardet_gb2312prober'
p582
(dp583
g29
(dp584
g8
S'_Library_Python_2_7_site-packages_requests-2_3_0-py2_7_egg_requests_packages_chardet_gb2312prober.html'
p585
sg10
S'/Library/Python/2.7/site-packages/requests-2.3.0-py2.7.egg/requests/packages/chardet/gb2312prober'
p586
sg12
g13
(g14
g15
NtRp587
(dp588
g18
I1
sg19
I0
sg20
I12
sg21
I0
sg22
I0
sg23
I5
sg24
I0
sbssg35
S'\xe5\x94\xf0\xde\x973\xba\x0b\xc0M$$%\x9b)\xee'
p589
ssS'_Library_Python_2_7_site-packages_requests-2_3_0-py2_7_egg_requests_compat'
p590
(dp591
g6
(dp592
g88
S'_Library_Python_2_7_site-packages_requests-2_3_0-py2_7_egg_requests_compat.html'
p593
sg90
S'/Library/Python/2.7/site-packages/requests-2.3.0-py2.7.egg/requests/compat'
p594
sg92
g13
(g14
g15
NtRp595
(dp596
g18
I1
sg19
I0
sg20
I56
sg21
I0
sg22
I0
sg23
I13
sg24
I0
sbssg25
S'\x87\x00\x13\xb8\x05\xe5O\xf1!\x11q\x05*\xfb\xa3+'
p597
ssS'_Library_Python_2_7_site-packages_requests-2_3_0-py2_7_egg_requests_packages_chardet_euckrfreq'
p598
(dp599
g29
(dp600
g8
S'_Library_Python_2_7_site-packages_requests-2_3_0-py2_7_egg_requests_packages_chardet_euckrfreq.html'
p601
sg10
S'/Library/Python/2.7/site-packages/requests-2.3.0-py2.7.egg/requests/packages/chardet/euckrfreq'
p602
sg12
g13
(g14
g15
NtRp603
(dp604
g18
I1
sg19
I0
sg20
I3
sg21
I0
sg22
I0
sg23
I0
sg24
I0
sbssg35
S'\x13u\x0b\xd0\x9b\x1cf\xb2\xea\xee\x9eB\x98\x86\x97c'
p605
ssS'_Library_Python_2_7_site-packages_lxml___init__'
p606
(dp607
g6
(dp608
g88
S'_Library_Python_2_7_site-packages_lxml___init__.html'
p609
sg90
S'/Library/Python/2.7/site-packages/lxml/__init__'
p610
sg92
g13
(g14
g15
NtRp611
(dp612
g18
I1
sg19
I0
sg20
I10
sg21
I0
sg22
I0
sg23
I9
sg24
I0
sbssg25
S':a\xf1\x1a\xce\x81\t\xc7\x9c}\xe9g\xa5 \x11\\'
p613
ssS'_Library_Python_2_7_site-packages_requests-2_3_0-py2_7_egg_requests_packages_urllib3_util_response'
p614
(dp615
g6
(dp616
g8
S'_Library_Python_2_7_site-packages_requests-2_3_0-py2_7_egg_requests_packages_urllib3_util_response.html'
p617
sg10
S'/Library/Python/2.7/site-packages/requests-2.3.0-py2.7.egg/requests/packages/urllib3/util/response'
p618
sg12
g13
(g14
g15
NtRp619
(dp620
g18
I1
sg19
I0
sg20
I4
sg21
I0
sg22
I0
sg23
I1
sg24
I0
sbssg25
S'\t:\x0b\x11\xe3X\x15\xf3\x0b\x86\x04P\\\x90(\xc0'
p621
ssS'_Library_Python_2_7_site-packages_requests-2_3_0-py2_7_egg_requests_packages_urllib3_packages___init__'
p622
(dp623
g6
(dp624
g88
S'_Library_Python_2_7_site-packages_requests-2_3_0-py2_7_egg_requests_packages_urllib3_packages___init__.html'
p625
sg90
S'/Library/Python/2.7/site-packages/requests-2.3.0-py2.7.egg/requests/packages/urllib3/packages/__init__'
p626
sg92
g13
(g14
g15
NtRp627
(dp628
g18
I1
sg19
I0
sg20
I2
sg21
I0
sg22
I0
sg23
I0
sg24
I0
sbssg25
S'm\xe6C\xc6\x82|\xf7\xbc\xe7R\xb6\xe3\x03Bg\x11'
p629
ssS'_Library_Python_2_7_site-packages_requests-2_3_0-py2_7_egg_requests_packages_urllib3_exceptions'
p630
(dp631
g6
(dp632
g88
S'_Library_Python_2_7_site-packages_requests-2_3_0-py2_7_egg_requests_packages_urllib3_exceptions.html'
p633
sg90
S'/Library/Python/2.7/site-packages/requests-2.3.0-py2.7.egg/requests/packages/urllib3/exceptions'
p634
sg92
g13
(g14
g15
NtRp635
(dp636
g18
I1
sg19
I0
sg20
I52
sg21
I0
sg22
I0
sg23
I18
sg24
I0
sbssg25
S'X\xcc&\x86\xe4\xa3\xd0o*\xc5t\r\xa6<\xe4\xfb'
p637
ssS'_Library_Python_2_7_site-packages_requests-2_3_0-py2_7_egg_requests_utils'
p638
(dp639
g6
(dp640
g8
S'_Library_Python_2_7_site-packages_requests-2_3_0-py2_7_egg_requests_utils.html'
p641
sg10
S'/Library/Python/2.7/site-packages/requests-2.3.0-py2.7.egg/requests/utils'
p642
sg12
g13
(g14
g15
NtRp643
(dp644
g18
I1
sg19
I0
sg20
I315
sg21
I0
sg22
I0
sg23
I199
sg24
I0
sbssg25
S'\x17U\xa4\x98b\xeed\xe7\x1a\x0e\xbar\xf9\x8d\xa1\x01'
p645
ssS'_Library_Python_2_7_site-packages_requests-2_3_0-py2_7_egg_requests_auth'
p646
(dp647
g6
(dp648
g88
S'_Library_Python_2_7_site-packages_requests-2_3_0-py2_7_egg_requests_auth.html'
p649
sg90
S'/Library/Python/2.7/site-packages/requests-2.3.0-py2.7.egg/requests/auth'
p650
sg92
g13
(g14
g15
NtRp651
(dp652
g18
I1
sg19
I0
sg20
I126
sg21
I0
sg22
I0
sg23
I102
sg24
I0
sbssg25
S'\xd4Q=R\xd3^\x00\xd4\x9e[\xde/\xeb\x1e\xb2\xd4'
p653
ssS'_Library_Python_2_7_site-packages_requests-2_3_0-py2_7_egg_requests_packages_chardet_langhungarianmodel'
p654
(dp655
g29
(dp656
g8
S'_Library_Python_2_7_site-packages_requests-2_3_0-py2_7_egg_requests_packages_chardet_langhungarianmodel.html'
p657
sg10
S'/Library/Python/2.7/site-packages/requests-2.3.0-py2.7.egg/requests/packages/chardet/langhungarianmodel'
p658
sg12
g13
(g14
g15
NtRp659
(dp660
g18
I1
sg19
I0
sg20
I5
sg21
I0
sg22
I0
sg23
I0
sg24
I0
sbssg35
S'\xdd\xfe3\xf2\x1a\xcbW\x05`\xde\xaa\xbbW\x91\x86\xd2'
p661
ssS'_Library_Python_2_7_site-packages_requests-2_3_0-py2_7_egg_requests_packages_urllib3_util_ssl_'
p662
(dp663
g6
(dp664
g8
S'_Library_Python_2_7_site-packages_requests-2_3_0-py2_7_egg_requests_packages_urllib3_util_ssl_.html'
p665
sg10
S'/Library/Python/2.7/site-packages/requests-2.3.0-py2.7.egg/requests/packages/urllib3/util/ssl_'
p666
sg12
g13
(g14
g15
NtRp667
(dp668
g18
I1
sg19
I0
sg20
I59
sg21
I0
sg22
I0
sg23
I35
sg24
I0
sbssg25
S'\x9c\x90@\xbeG\x17\x82\xfb\xe8KWCJ4\xec\xd3'
p669
ssS'_Library_Python_2_7_site-packages_requests-2_3_0-py2_7_egg_requests_packages_urllib3_packages_six'
p670
(dp671
g6
(dp672
g8
S'_Library_Python_2_7_site-packages_requests-2_3_0-py2_7_egg_requests_packages_urllib3_packages_six.html'
p673
sg10
S'/Library/Python/2.7/site-packages/requests-2.3.0-py2.7.egg/requests/packages/urllib3/packages/six'
p674
sg12
g13
(g14
g15
NtRp675
(dp676
g18
I1
sg19
I0
sg20
I217
sg21
I0
sg22
I0
sg23
I111
sg24
I0
sbssg25
S'm\xe2m\xeeh\xd0\x12\xdf\xd2d q:\x0f\xb2\x1b'
p677
ssS'_Library_Python_2_7_site-packages_requests-2_3_0-py2_7_egg_requests_models'
p678
(dp679
g6
(dp680
g8
S'_Library_Python_2_7_site-packages_requests-2_3_0-py2_7_egg_requests_models.html'
p681
sg10
S'/Library/Python/2.7/site-packages/requests-2.3.0-py2.7.egg/requests/models'
p682
sg12
g13
(g14
g15
NtRp683
(dp684
g18
I1
sg19
I0
sg20
I390
sg21
I0
sg22
I0
sg23
I161
sg24
I0
sbssg25
S'(\xe1\xe8{\x8b\xab\xe9,C{\x02\x1a\x9e\x05\x87\xc9'
p685
ssS'_Library_Python_2_7_site-packages_requests-2_3_0-py2_7_egg_requests_packages_chardet_mbcssm'
p686
(dp687
g29
(dp688
g8
S'_Library_Python_2_7_site-packages_requests-2_3_0-py2_7_egg_requests_packages_chardet_mbcssm.html'
p689
sg10
S'/Library/Python/2.7/site-packages/requests-2.3.0-py2.7.egg/requests/packages/chardet/mbcssm'
p690
sg12
g13
(g14
g15
NtRp691
(dp692
g18
I1
sg19
I0
sg20
I41
sg21
I0
sg22
I0
sg23
I0
sg24
I0
sbssg35
S'\x896\x03R\xa8\xe0F\x82Ry9\xab\x14\x0bf\xf0'
p693
ssS'_Library_Python_2_7_site-packages_requests-2_3_0-py2_7_egg_requests_packages_chardet_mbcsgroupprober'
p694
(dp695
g29
(dp696
g8
S'_Library_Python_2_7_site-packages_requests-2_3_0-py2_7_egg_requests_packages_chardet_mbcsgroupprober.html'
p697
sg10
S'/Library/Python/2.7/site-packages/requests-2.3.0-py2.7.egg/requests/packages/chardet/mbcsgroupprober'
p698
sg12
g13
(g14
g15
NtRp699
(dp700
g18
I1
sg19
I0
sg20
I14
sg21
I0
sg22
I0
sg23
I3
sg24
I0
sbssg35
S'\x9d\x02\x922\xf8h\xa5\xeb\x1f\xc7\x7f/\x7f\x19DG'
p701
ssS'_Library_Python_2_7_site-packages_requests-2_3_0-py2_7_egg_requests_packages_urllib3_request'
p702
(dp703
g6
(dp704
g8
S'_Library_Python_2_7_site-packages_requests-2_3_0-py2_7_egg_requests_packages_urllib3_request.html'
p705
sg10
S'/Library/Python/2.7/site-packages/requests-2.3.0-py2.7.egg/requests/packages/urllib3/request'
p706
sg12
g13
(g14
g15
NtRp707
(dp708
g18
I1
sg19
I0
sg20
I30
sg21
I0
sg22
I0
sg23
I16
sg24
I0
sbssg25
S'\x9f{V\x87\xae}u7\xd4\x8e\x0c\x9cL.B\xc9'
p709
ssS'_Library_Python_2_7_site-packages_requests-2_3_0-py2_7_egg_requests_packages_chardet_utf8prober'
p710
(dp711
g29
(dp712
g8
S'_Library_Python_2_7_site-packages_requests-2_3_0-py2_7_egg_requests_packages_chardet_utf8prober.html'
p713
sg10
S'/Library/Python/2.7/site-packages/requests-2.3.0-py2.7.egg/requests/packages/chardet/utf8prober'
p714
sg12
g13
(g14
g15
NtRp715
(dp716
g18
I1
sg19
I0
sg20
I39
sg21
I0
sg22
I0
sg23
I28
sg24
I0
sbssg35
S'\x8d\x99$\x17\x80\\T\x85\xa7q\xf2\x9f\x04\xd6\x96\x00'
p717
sssS'version'
p718
S'4.0a0'
p719
sS'settings'
p720
S'\x87\x9cc8\x80\xe5\x97\xb16\xfcv\xa2\x8d\x8a\xbb\xcf'
p721
sS'format'
p722
I1
s.